; Function Attrs: nounwind uwtable
define void @Gia_ManMarkAutonomous(ptr noundef %0) local_unnamed_addr #1 {
  tail call void @Gia_ManCleanMark0(ptr noundef %0) #16
  tail call void @Gia_ManIncrementTravId(ptr noundef %0) #16
  %2 = getelementptr i8, ptr %0, i64 32
  %3 = getelementptr i8, ptr %0, i64 16
  %.val2935 = load i32, ptr %3, align 8
  %4 = icmp sgt i32 %.val2935, 0
  br i1 %4, label %.lr.ph, label %.critedge

.lr.ph:                                           ; preds = %1
  %5 = getelementptr i8, ptr %0, i64 64
  br label %6

6:                                                ; preds = %.lr.ph, %7
  %.val2937 = phi i32 [ %.val2935, %.lr.ph ], [ %.val29, %7 ]
  %.036 = phi i32 [ 0, %.lr.ph ], [ %18, %7 ]
  %.val31 = load ptr, ptr %2, align 8
  %.not = icmp eq ptr %.val31, null
  br i1 %.not, label %.critedge, label %7

7:                                                ; preds = %6
  %.val26 = load ptr, ptr %5, align 8
  %8 = getelementptr i8, ptr %.val26, i64 8
  %.val32.val = load ptr, ptr %8, align 8
  %9 = getelementptr i8, ptr %.val26, i64 4
  %.val26.val = load i32, ptr %9, align 4
  %10 = sub i32 %.036, %.val2937
  %11 = add i32 %10, %.val26.val
  %12 = sext i32 %11 to i64
  %13 = getelementptr inbounds i32, ptr %.val32.val, i64 %12
  %14 = load i32, ptr %13, align 4
  %15 = sext i32 %14 to i64
  %16 = getelementptr inbounds %struct.Gia_Obj_t_, ptr %.val31, i64 %15
  %17 = tail call i32 @Gia_ManMarkAutonomous_rec(ptr noundef nonnull %0, ptr noundef nonnull %16)
  %18 = add nuw nsw i32 %.036, 1
  %.val29 = load i32, ptr %3, align 8
  %19 = icmp slt i32 %18, %.val29
  br i1 %19, label %6, label %.critedge, !llvm.loop !4

.critedge:                                        ; preds = %6, %7, %1
  tail call void @Gia_ManIncrementTravId(ptr noundef nonnull %0) #16
  %20 = getelementptr i8, ptr %0, i64 64
  %.val3039 = load i32, ptr %3, align 8
  %21 = icmp sgt i32 %.val3039, 0
  br i1 %21, label %.lr.ph42, label %.critedge2

.lr.ph42:                                         ; preds = %.critedge
  %22 = getelementptr inbounds nuw i8, ptr %0, i64 176
  %23 = getelementptr inbounds nuw i8, ptr %0, i64 616
  br label %24

24:                                               ; preds = %.lr.ph42, %42
  %.val3044 = phi i32 [ %.val3039, %.lr.ph42 ], [ %.val30, %42 ]
  %.140 = phi i32 [ 0, %.lr.ph42 ], [ %43, %42 ]
  %.val28 = load ptr, ptr %20, align 8
  %25 = getelementptr i8, ptr %.val28, i64 4
  %.val28.val = load i32, ptr %25, align 4
  %26 = sub i32 %.140, %.val3044
  %27 = add i32 %26, %.val28.val
  %.val33 = load ptr, ptr %2, align 8
  %28 = getelementptr i8, ptr %.val28, i64 8
  %.val34.val = load ptr, ptr %28, align 8
  %29 = sext i32 %27 to i64
  %30 = getelementptr inbounds i32, ptr %.val34.val, i64 %29
  %31 = load i32, ptr %30, align 4
  %32 = sext i32 %31 to i64
  %.not24 = icmp eq ptr %.val33, null
  br i1 %.not24, label %.critedge2, label %33

33:                                               ; preds = %24
  %34 = getelementptr inbounds %struct.Gia_Obj_t_, ptr %.val33, i64 %32
  %35 = load i64, ptr %34, align 4
  %36 = and i64 %35, 1073741824
  %.not25 = icmp eq i64 %36, 0
  br i1 %.not25, label %42, label %37

37:                                               ; preds = %33
  %38 = load i32, ptr %22, align 8
  %39 = load ptr, ptr %23, align 8
  %40 = shl nsw i64 %32, 2
  %41 = getelementptr inbounds i8, ptr %39, i64 %40
  store i32 %38, ptr %41, align 4
  %.val30.pre = load i32, ptr %3, align 8
  br label %42

42:                                               ; preds = %33, %37
  %.val30 = phi i32 [ %.val3044, %33 ], [ %.val30.pre, %37 ]
  %43 = add nuw nsw i32 %.140, 1
  %44 = icmp slt i32 %43, %.val30
  br i1 %44, label %24, label %.critedge2, !llvm.loop !6

.critedge2:                                       ; preds = %24, %42, %.critedge
  tail call void @Gia_ManCleanMark0(ptr noundef nonnull %0) #16
  ret void
}